; Function Attrs: nounwind uwtable
define dso_local ptr @app_conf_try_string(ptr noundef %0, ptr noundef %1, ptr noundef %2) local_unnamed_addr #0 {
  %4 = tail call i32 @ERR_set_mark() #27
  %5 = tail call ptr @NCONF_get_string(ptr noundef %0, ptr noundef %1, ptr noundef %2) #27
  %6 = icmp eq ptr %5, null
  br i1 %6, label %7, label %9

7:                                                ; preds = %3
  %8 = tail call i32 @ERR_pop_to_mark() #27
  br label %11

9:                                                ; preds = %3
  %10 = tail call i32 @ERR_clear_last_mark() #27
  br label %11

11:                                               ; preds = %9, %7
  ret ptr %5
}